target datalayout = "e-m:e-p270:32:32-p271:32:32-p272:64:64-i64:64-i128:128-f80:128-n8:16:32:64-S128"
target triple = "x86_64-pc-linux-gnu"

%struct.CharRange = type { i32, i32, ptr, ptr, ptr }

; Function Attrs: nounwind uwtable
define internal i32 @max_int(i32 noundef %0, i32 noundef %1) #0 {
  %3 = alloca i32, align 4
  %4 = alloca i32, align 4
  %5 = alloca i32, align 4
  store i32 %0, ptr %4, align 4
  store i32 %1, ptr %5, align 4
  %6 = load i32, ptr %4, align 4
  %7 = load i32, ptr %5, align 4
  %8 = icmp sgt i32 %6, %7
  br i1 %8, label %9, label %11

9:                                                ; preds = %2
  %10 = load i32, ptr %4, align 4
  store i32 %10, ptr %3, align 4
  br label %13

11:                                               ; preds = %2
  %12 = load i32, ptr %5, align 4
  store i32 %12, ptr %3, align 4
  br label %13

13:                                               ; preds = %11, %9
  %14 = load i32, ptr %3, align 4
  ret i32 %14
}

; Function Attrs: nounwind uwtable
define internal void @cr_compress(ptr noundef %0) #0 {
  %2 = alloca ptr, align 8
  %3 = alloca i32, align 4
  %4 = alloca i32, align 4
  %5 = alloca i32, align 4
  %6 = alloca i32, align 4
  %7 = alloca ptr, align 8
  store ptr %0, ptr %2, align 8
  %8 = load ptr, ptr %2, align 8
  %9 = getelementptr inbounds %struct.CharRange, ptr %8, i32 0, i32 2
  %10 = load ptr, ptr %9, align 8
  store ptr %10, ptr %7, align 8
  %11 = load ptr, ptr %2, align 8
  %12 = getelementptr inbounds %struct.CharRange, ptr %11, i32 0, i32 0
  %13 = load i32, ptr %12, align 8
  store i32 %13, ptr %6, align 4
  store i32 0, ptr %3, align 4
  store i32 0, ptr %4, align 4
  store i32 0, ptr %5, align 4
  br label %14

14:                                               ; preds = %86, %1
  %15 = load i32, ptr %3, align 4
  %16 = add i32 %15, 1
  %17 = load i32, ptr %6, align 4
  %18 = icmp slt i32 %16, %17
  br i1 %18, label %19, label %87

19:                                               ; preds = %14
  %20 = load ptr, ptr %7, align 8
  %21 = load i32, ptr %3, align 4
  %22 = sext i32 %21 to i64
  %23 = getelementptr i32, ptr %20, i64 %22
  %24 = load i32, ptr %23, align 4
  %25 = load ptr, ptr %7, align 8
  %26 = load i32, ptr %3, align 4
  %27 = add i32 %26, 1
  %28 = sext i32 %27 to i64
  %29 = getelementptr i32, ptr %25, i64 %28
  %30 = load i32, ptr %29, align 4
  %31 = icmp eq i32 %24, %30
  br i1 %31, label %32, label %35

32:                                               ; preds = %19
  %33 = load i32, ptr %3, align 4
  %34 = add i32 %33, 2
  store i32 %34, ptr %3, align 4
  br label %86

35:                                               ; preds = %19
  %36 = load i32, ptr %3, align 4
  store i32 %36, ptr %4, align 4
  br label %37

37:                                               ; preds = %58, %35
  %38 = load i32, ptr %4, align 4
  %39 = add i32 %38, 3
  %40 = load i32, ptr %6, align 4
  %41 = icmp slt i32 %39, %40
  br i1 %41, label %42, label %56

42:                                               ; preds = %37
  %43 = load ptr, ptr %7, align 8
  %44 = load i32, ptr %4, align 4
  %45 = add i32 %44, 1
  %46 = sext i32 %45 to i64
  %47 = getelementptr i32, ptr %43, i64 %46
  %48 = load i32, ptr %47, align 4
  %49 = load ptr, ptr %7, align 8
  %50 = load i32, ptr %4, align 4
  %51 = add i32 %50, 2
  %52 = sext i32 %51 to i64
  %53 = getelementptr i32, ptr %49, i64 %52
  %54 = load i32, ptr %53, align 4
  %55 = icmp eq i32 %48, %54
  br label %56

56:                                               ; preds = %42, %37
  %57 = phi i1 [ false, %37 ], [ %55, %42 ]
  br i1 %57, label %58, label %61

58:                                               ; preds = %56
  %59 = load i32, ptr %4, align 4
  %60 = add i32 %59, 2
  store i32 %60, ptr %4, align 4
  br label %37, !llvm.loop !11

61:                                               ; preds = %56
  %62 = load ptr, ptr %7, align 8
  %63 = load i32, ptr %3, align 4
  %64 = sext i32 %63 to i64
  %65 = getelementptr i32, ptr %62, i64 %64
  %66 = load i32, ptr %65, align 4
  %67 = load ptr, ptr %7, align 8
  %68 = load i32, ptr %5, align 4
  %69 = sext i32 %68 to i64
  %70 = getelementptr i32, ptr %67, i64 %69
  store i32 %66, ptr %70, align 4
  %71 = load ptr, ptr %7, align 8
  %72 = load i32, ptr %4, align 4
  %73 = add i32 %72, 1
  %74 = sext i32 %73 to i64
  %75 = getelementptr i32, ptr %71, i64 %74
  %76 = load i32, ptr %75, align 4
  %77 = load ptr, ptr %7, align 8
  %78 = load i32, ptr %5, align 4
  %79 = add i32 %78, 1
  %80 = sext i32 %79 to i64
  %81 = getelementptr i32, ptr %77, i64 %80
  store i32 %76, ptr %81, align 4
  %82 = load i32, ptr %5, align 4
  %83 = add i32 %82, 2
  store i32 %83, ptr %5, align 4
  %84 = load i32, ptr %4, align 4
  %85 = add i32 %84, 2
  store i32 %85, ptr %3, align 4
  br label %86

86:                                               ; preds = %61, %32
  br label %14, !llvm.loop !12

87:                                               ; preds = %14
  %88 = load i32, ptr %5, align 4
  %89 = load ptr, ptr %2, align 8
  %90 = getelementptr inbounds %struct.CharRange, ptr %89, i32 0, i32 0
  store i32 %88, ptr %90, align 8
  ret void
}

; Function Attrs: nounwind uwtable
define dso_local i32 @cr_realloc(ptr noundef %0, i32 noundef %1) #0 {
  %3 = alloca i32, align 4
  %4 = alloca ptr, align 8
  %5 = alloca i32, align 4
  %6 = alloca i32, align 4
  %7 = alloca ptr, align 8
  store ptr %0, ptr %4, align 8
  store i32 %1, ptr %5, align 4
  %8 = load i32, ptr %5, align 4
  %9 = load ptr, ptr %4, align 8
  %10 = getelementptr inbounds %struct.CharRange, ptr %9, i32 0, i32 1
  %11 = load i32, ptr %10, align 4
  %12 = icmp sgt i32 %8, %11
  br i1 %12, label %13, label %44

13:                                               ; preds = %2
  %14 = load i32, ptr %5, align 4
  %15 = load ptr, ptr %4, align 8
  %16 = getelementptr inbounds %struct.CharRange, ptr %15, i32 0, i32 1
  %17 = load i32, ptr %16, align 4
  %18 = mul i32 %17, 3
  %19 = sdiv i32 %18, 2
  %20 = call i32 @max_int(i32 noundef %14, i32 noundef %19)
  store i32 %20, ptr %6, align 4
  %21 = load ptr, ptr %4, align 8
  %22 = getelementptr inbounds %struct.CharRange, ptr %21, i32 0, i32 4
  %23 = load ptr, ptr %22, align 8
  %24 = load ptr, ptr %4, align 8
  %25 = getelementptr inbounds %struct.CharRange, ptr %24, i32 0, i32 3
  %26 = load ptr, ptr %25, align 8
  %27 = load ptr, ptr %4, align 8
  %28 = getelementptr inbounds %struct.CharRange, ptr %27, i32 0, i32 2
  %29 = load ptr, ptr %28, align 8
  %30 = load i32, ptr %6, align 4
  %31 = sext i32 %30 to i64
  %32 = mul i64 %31, 4
  %33 = call ptr %23(ptr noundef %26, ptr noundef %29, i64 noundef %32)
  store ptr %33, ptr %7, align 8
  %34 = load ptr, ptr %7, align 8
  %35 = icmp ne ptr %34, null
  br i1 %35, label %37, label %36

36:                                               ; preds = %13
  store i32 -1, ptr %3, align 4
  br label %45

37:                                               ; preds = %13
  %38 = load ptr, ptr %7, align 8
  %39 = load ptr, ptr %4, align 8
  %40 = getelementptr inbounds %struct.CharRange, ptr %39, i32 0, i32 2
  store ptr %38, ptr %40, align 8
  %41 = load i32, ptr %6, align 4
  %42 = load ptr, ptr %4, align 8
  %43 = getelementptr inbounds %struct.CharRange, ptr %42, i32 0, i32 1
  store i32 %41, ptr %43, align 4
  br label %44

44:                                               ; preds = %37, %2
  store i32 0, ptr %3, align 4
  br label %45

45:                                               ; preds = %44, %36
  %46 = load i32, ptr %3, align 4
  ret i32 %46
}

; Function Attrs: nounwind uwtable
define dso_local i32 @cr_invert(ptr noundef %0) #0 {
  %2 = alloca i32, align 4
  %3 = alloca ptr, align 8
  %4 = alloca i32, align 4
  store ptr %0, ptr %3, align 8
  %5 = load ptr, ptr %3, align 8
  %6 = getelementptr inbounds %struct.CharRange, ptr %5, i32 0, i32 0
  %7 = load i32, ptr %6, align 8
  store i32 %7, ptr %4, align 4
  %8 = load ptr, ptr %3, align 8
  %9 = load i32, ptr %4, align 4
  %10 = add i32 %9, 2
  %11 = call i32 @cr_realloc(ptr noundef %8, i32 noundef %10)
  %12 = icmp ne i32 %11, 0
  br i1 %12, label %13, label %14

13:                                               ; preds = %1
  store i32 -1, ptr %2, align 4
  br label %41

14:                                               ; preds = %1
  %15 = load ptr, ptr %3, align 8
  %16 = getelementptr inbounds %struct.CharRange, ptr %15, i32 0, i32 2
  %17 = load ptr, ptr %16, align 8
  %18 = getelementptr i32, ptr %17, i64 1
  %19 = load ptr, ptr %3, align 8
  %20 = getelementptr inbounds %struct.CharRange, ptr %19, i32 0, i32 2
  %21 = load ptr, ptr %20, align 8
  %22 = load i32, ptr %4, align 4
  %23 = sext i32 %22 to i64
  %24 = mul i64 %23, 4
  call void @llvm.memmove.p0.p0.i64(ptr align 4 %18, ptr align 4 %21, i64 %24, i1 false)
  %25 = load ptr, ptr %3, align 8
  %26 = getelementptr inbounds %struct.CharRange, ptr %25, i32 0, i32 2
  %27 = load ptr, ptr %26, align 8
  %28 = getelementptr i32, ptr %27, i64 0
  store i32 0, ptr %28, align 4
  %29 = load ptr, ptr %3, align 8
  %30 = getelementptr inbounds %struct.CharRange, ptr %29, i32 0, i32 2
  %31 = load ptr, ptr %30, align 8
  %32 = load i32, ptr %4, align 4
  %33 = add i32 %32, 1
  %34 = sext i32 %33 to i64
  %35 = getelementptr i32, ptr %31, i64 %34
  store i32 -1, ptr %35, align 4
  %36 = load i32, ptr %4, align 4
  %37 = add i32 %36, 2
  %38 = load ptr, ptr %3, align 8
  %39 = getelementptr inbounds %struct.CharRange, ptr %38, i32 0, i32 0
  store i32 %37, ptr %39, align 8
  %40 = load ptr, ptr %3, align 8
  call void @cr_compress(ptr noundef %40)
  store i32 0, ptr %2, align 4
  br label %41

41:                                               ; preds = %14, %13
  %42 = load i32, ptr %2, align 4
  ret i32 %42
}