; Function Attrs: nounwind uwtable
define dso_local noundef i32 @cr_invert(ptr nocapture noundef %0) local_unnamed_addr #5 {
  %2 = load i32, ptr %0, align 8
  %3 = add i32 %2, 2
  %4 = getelementptr inbounds i8, ptr %0, i64 4
  %5 = load i32, ptr %4, align 4
  %6 = icmp slt i32 %5, %3
  br i1 %6, label %7, label %._crit_edge

._crit_edge:                                      ; preds = %1
  %.phi.trans.insert = getelementptr inbounds i8, ptr %0, i64 8
  %.pre = load ptr, ptr %.phi.trans.insert, align 8
  br label %20

7:                                                ; preds = %1
  %8 = mul i32 %5, 3
  %9 = sdiv i32 %8, 2
  %..i.i = tail call noundef i32 @llvm.smax.i32(i32 %3, i32 %9)
  %10 = getelementptr inbounds i8, ptr %0, i64 24
  %11 = load ptr, ptr %10, align 8
  %12 = getelementptr inbounds i8, ptr %0, i64 16
  %13 = load ptr, ptr %12, align 8
  %14 = getelementptr inbounds i8, ptr %0, i64 8
  %15 = load ptr, ptr %14, align 8
  %16 = sext i32 %..i.i to i64
  %17 = shl nsw i64 %16, 2
  %18 = tail call ptr %11(ptr noundef %13, ptr noundef %15, i64 noundef %17) #20
  %.not.i = icmp eq ptr %18, null
  br i1 %.not.i, label %cr_realloc.exit, label %19

19:                                               ; preds = %7
  store ptr %18, ptr %14, align 8
  store i32 %..i.i, ptr %4, align 4
  br label %20

20:                                               ; preds = %._crit_edge, %19
  %21 = phi ptr [ %.pre, %._crit_edge ], [ %18, %19 ]
  %22 = getelementptr inbounds i8, ptr %0, i64 8
  %23 = getelementptr i8, ptr %21, i64 4
  %24 = sext i32 %2 to i64
  %25 = shl nsw i64 %24, 2
  tail call void @llvm.memmove.p0.p0.i64(ptr align 4 %23, ptr align 4 %21, i64 %25, i1 false)
  %26 = load ptr, ptr %22, align 8
  store i32 0, ptr %26, align 4
  %27 = load ptr, ptr %22, align 8
  %28 = add i32 %2, 1
  %29 = sext i32 %28 to i64
  %30 = getelementptr i32, ptr %27, i64 %29
  store i32 -1, ptr %30, align 4
  store i32 %3, ptr %0, align 8
  %31 = load ptr, ptr %22, align 8
  %32 = icmp ult i32 %2, 2147483646
  br i1 %32, label %.lr.ph.i, label %cr_compress.exit

.lr.ph.i:                                         ; preds = %20, %61
  %33 = phi i32 [ %.pre-phi.i, %61 ], [ 1, %20 ]
  %.034.i = phi i32 [ %.1.i, %61 ], [ 0, %20 ]
  %.02933.i = phi i32 [ %.130.i, %61 ], [ 0, %20 ]
  %34 = sext i32 %.034.i to i64
  %35 = getelementptr i32, ptr %31, i64 %34
  %36 = load i32, ptr %35, align 4
  %37 = sext i32 %33 to i64
  %38 = getelementptr i32, ptr %31, i64 %37
  %39 = load i32, ptr %38, align 4
  %40 = icmp eq i32 %36, %39
  br i1 %40, label %.lr.ph._crit_edge.i, label %.preheader.i

.lr.ph._crit_edge.i:                              ; preds = %.lr.ph.i
  %.pre.i = add i32 %.034.i, 3
  br label %61

.preheader.i:                                     ; preds = %.lr.ph.i, %45
  %.028.i = phi i32 [ %48, %45 ], [ %.034.i, %.lr.ph.i ]
  %41 = add i32 %.028.i, 3
  %42 = icmp slt i32 %41, %3
  %43 = add i32 %.028.i, 1
  %44 = sext i32 %43 to i64
  br i1 %42, label %45, label %.critedge.i

45:                                               ; preds = %.preheader.i
  %46 = getelementptr i32, ptr %31, i64 %44
  %47 = load i32, ptr %46, align 4
  %48 = add i32 %.028.i, 2
  %49 = sext i32 %48 to i64
  %50 = getelementptr i32, ptr %31, i64 %49
  %51 = load i32, ptr %50, align 4
  %52 = icmp eq i32 %47, %51
  br i1 %52, label %.preheader.i, label %.critedge.i, !llvm.loop !14

.critedge.i:                                      ; preds = %45, %.preheader.i
  %53 = sext i32 %.02933.i to i64
  %54 = getelementptr i32, ptr %31, i64 %53
  store i32 %36, ptr %54, align 4
  %55 = getelementptr i32, ptr %31, i64 %44
  %56 = load i32, ptr %55, align 4
  %57 = add i32 %.02933.i, 1
  %58 = sext i32 %57 to i64
  %59 = getelementptr i32, ptr %31, i64 %58
  store i32 %56, ptr %59, align 4
  %60 = add i32 %.02933.i, 2
  br label %61

61:                                               ; preds = %.critedge.i, %.lr.ph._crit_edge.i
  %.pre-phi.i = phi i32 [ %.pre.i, %.lr.ph._crit_edge.i ], [ %41, %.critedge.i ]
  %.130.i = phi i32 [ %.02933.i, %.lr.ph._crit_edge.i ], [ %60, %.critedge.i ]
  %.1.in.i = phi i32 [ %.034.i, %.lr.ph._crit_edge.i ], [ %.028.i, %.critedge.i ]
  %.1.i = add i32 %.1.in.i, 2
  %62 = icmp slt i32 %.pre-phi.i, %3
  br i1 %62, label %.lr.ph.i, label %cr_compress.exit, !llvm.loop !15

cr_compress.exit:                                 ; preds = %61, %20
  %.029.lcssa.i = phi i32 [ 0, %20 ], [ %.130.i, %61 ]
  store i32 %.029.lcssa.i, ptr %0, align 8
  br label %cr_realloc.exit

cr_realloc.exit:                                  ; preds = %7, %cr_compress.exit
  %.0 = phi i32 [ 0, %cr_compress.exit ], [ -1, %7 ]
  ret i32 %.0
}